; Function Attrs: nounwind uwtable
define ptr @l_Lean_IR_formatArray___at___private_Lean_Compiler_IR_Format_0__Lean_IR_formatExpr___spec__1___boxed(ptr noundef %0) local_unnamed_addr #0 {
  %2 = getelementptr i8, ptr %0, i64 8
  %.val.i = load i64, ptr %2, align 8, !tbaa !14
  %.mask.i = and i64 %.val.i, 9223372036854775807
  %.not.i3 = icmp eq i64 %.mask.i, 0
  br i1 %.not.i3, label %l_Lean_IR_formatArray___at___private_Lean_Compiler_IR_Format_0__Lean_IR_formatExpr___spec__1.exit, label %lean_dec.exit.i

lean_dec.exit.i:                                  ; preds = %1
  %3 = tail call ptr @l_Array_foldlMUnsafe_fold___at___private_Lean_Compiler_IR_Format_0__Lean_IR_formatExpr___spec__2(ptr noundef nonnull readonly %0, i64 noundef 0, i64 noundef %.mask.i, ptr noundef nonnull inttoptr (i64 1 to ptr))
  br label %l_Lean_IR_formatArray___at___private_Lean_Compiler_IR_Format_0__Lean_IR_formatExpr___spec__1.exit

l_Lean_IR_formatArray___at___private_Lean_Compiler_IR_Format_0__Lean_IR_formatExpr___spec__1.exit: ; preds = %1, %lean_dec.exit.i
  %.0.i = phi ptr [ %3, %lean_dec.exit.i ], [ inttoptr (i64 1 to ptr), %1 ]
  %4 = ptrtoint ptr %0 to i64
  %5 = and i64 %4, 1
  %.not = icmp eq i64 %5, 0
  br i1 %.not, label %6, label %lean_dec.exit

6:                                                ; preds = %l_Lean_IR_formatArray___at___private_Lean_Compiler_IR_Format_0__Lean_IR_formatExpr___spec__1.exit
  %7 = load i32, ptr %0, align 4, !tbaa !4
  %8 = icmp sgt i32 %7, 1
  br i1 %8, label %9, label %11, !prof !11

9:                                                ; preds = %6
  %10 = add nsw i32 %7, -1
  store i32 %10, ptr %0, align 4, !tbaa !4
  br label %lean_dec.exit

11:                                               ; preds = %6
  %.not.i = icmp eq i32 %7, 0
  br i1 %.not.i, label %lean_dec.exit, label %12

12:                                               ; preds = %11
  tail call void @lean_dec_ref_cold(ptr noundef nonnull %0) #4
  br label %lean_dec.exit

lean_dec.exit:                                    ; preds = %12, %11, %9, %l_Lean_IR_formatArray___at___private_Lean_Compiler_IR_Format_0__Lean_IR_formatExpr___spec__1.exit
  ret ptr %.0.i
}